; Function Attrs: mustprogress nofree nounwind willreturn memory(argmem: read) uwtable
define noundef zeroext i1 @_ZN6google8protobuf8compiler19IsKnownFeatureProtoESt17basic_string_viewIcSt11char_traitsIcEE(i64 %filename.coerce0, ptr readonly captures(none) %filename.coerce1) local_unnamed_addr #11 personality ptr @__gxx_personality_v0 {
entry:
  switch i64 %filename.coerce0, label %return [
    i64 34, label %_ZNSt11char_traitsIcE7compareEPKcS2_m.exit.i.i
    i64 35, label %_ZNSt11char_traitsIcE7compareEPKcS2_m.exit.i.i7
  ]

_ZNSt11char_traitsIcE7compareEPKcS2_m.exit.i.i:   ; preds = %entry
  %bcmp.i = tail call i32 @bcmp(ptr noundef nonnull dereferenceable(34) %filename.coerce1, ptr noundef nonnull dereferenceable(34) @.str.8, i64 34)
  %cmp.i.i = icmp eq i32 %bcmp.i, 0
  br label %return

_ZNSt11char_traitsIcE7compareEPKcS2_m.exit.i.i7:  ; preds = %entry
  %bcmp.i8 = tail call i32 @bcmp(ptr noundef nonnull dereferenceable(35) %filename.coerce1, ptr noundef nonnull dereferenceable(35) @.str.9, i64 35)
  %cmp.i.i9 = icmp eq i32 %bcmp.i8, 0
  br label %return

return:                                           ; preds = %_ZNSt11char_traitsIcE7compareEPKcS2_m.exit.i.i, %_ZNSt11char_traitsIcE7compareEPKcS2_m.exit.i.i7, %entry
  %retval.0 = phi i1 [ false, %entry ], [ %cmp.i.i9, %_ZNSt11char_traitsIcE7compareEPKcS2_m.exit.i.i7 ], [ %cmp.i.i, %_ZNSt11char_traitsIcE7compareEPKcS2_m.exit.i.i ]
  ret i1 %retval.0
}